; ModuleID = '14/202.c'
source_filename = "14/202.c"
target datalayout = "e-m:e-p270:32:32-p271:32:32-p272:64:64-i64:64-f80:128-n8:16:32:64-S128"
target triple = "x86_64-pc-linux-gnu"

%struct.stu = type { i32, i32, i32, i32 }

@.str = private unnamed_addr constant [3 x i8] c"%d\00", align 1
@.str.1 = private unnamed_addr constant [9 x i8] c"%d %d %d\00", align 1
@.str.2 = private unnamed_addr constant [19 x i8] c"%d %d\0A%d %d\0A%d %d\0A\00", align 1

; Function Attrs: noinline nounwind uwtable
define dso_local i32 @main() #0 {
  %1 = alloca i32, align 4
  %2 = alloca i64, align 8
  %3 = alloca i32, align 4
  %4 = alloca i32, align 4
  %5 = alloca i32, align 4
  %6 = alloca i32, align 4
  %7 = alloca i32, align 4
  %8 = alloca i32, align 4
  %9 = alloca [65535 x %struct.stu], align 16
  %10 = alloca i32, align 4
  %11 = alloca i32, align 4
  store i32 0, i32* %1, align 4
  store i32 0, i32* %3, align 4
  store i32 0, i32* %4, align 4
  store i32 0, i32* %5, align 4
  store i32 0, i32* %6, align 4
  store i32 0, i32* %7, align 4
  store i32 0, i32* %8, align 4
  %12 = call i32 (i8*, ...) @__isoc99_scanf(i8* getelementptr inbounds ([3 x i8], [3 x i8]* @.str, i64 0, i64 0), i64* %2)
  store i32 0, i32* %10, align 4
  br label %13

13:                                               ; preds = %47, %0
  %14 = load i32, i32* %10, align 4
  %15 = sext i32 %14 to i64
  %16 = load i64, i64* %2, align 8
  %17 = icmp slt i64 %15, %16
  br i1 %17, label %18, label %50

18:                                               ; preds = %13
  %19 = load i32, i32* %10, align 4
  %20 = sext i32 %19 to i64
  %21 = getelementptr inbounds [65535 x %struct.stu], [65535 x %struct.stu]* %9, i64 0, i64 %20
  %22 = getelementptr inbounds %struct.stu, %struct.stu* %21, i32 0, i32 0
  %23 = load i32, i32* %10, align 4
  %24 = sext i32 %23 to i64
  %25 = getelementptr inbounds [65535 x %struct.stu], [65535 x %struct.stu]* %9, i64 0, i64 %24
  %26 = getelementptr inbounds %struct.stu, %struct.stu* %25, i32 0, i32 2
  %27 = load i32, i32* %10, align 4
  %28 = sext i32 %27 to i64
  %29 = getelementptr inbounds [65535 x %struct.stu], [65535 x %struct.stu]* %9, i64 0, i64 %28
  %30 = getelementptr inbounds %struct.stu, %struct.stu* %29, i32 0, i32 1
  %31 = call i32 (i8*, ...) @__isoc99_scanf(i8* getelementptr inbounds ([9 x i8], [9 x i8]* @.str.1, i64 0, i64 0), i32* %22, i32* %26, i32* %30)
  %32 = load i32, i32* %10, align 4
  %33 = sext i32 %32 to i64
  %34 = getelementptr inbounds [65535 x %struct.stu], [65535 x %struct.stu]* %9, i64 0, i64 %33
  %35 = getelementptr inbounds %struct.stu, %struct.stu* %34, i32 0, i32 1
  %36 = load i32, i32* %35, align 4
  %37 = load i32, i32* %10, align 4
  %38 = sext i32 %37 to i64
  %39 = getelementptr inbounds [65535 x %struct.stu], [65535 x %struct.stu]* %9, i64 0, i64 %38
  %40 = getelementptr inbounds %struct.stu, %struct.stu* %39, i32 0, i32 2
  %41 = load i32, i32* %40, align 8
  %42 = add nsw i32 %36, %41
  %43 = load i32, i32* %10, align 4
  %44 = sext i32 %43 to i64
  %45 = getelementptr inbounds [65535 x %struct.stu], [65535 x %struct.stu]* %9, i64 0, i64 %44
  %46 = getelementptr inbounds %struct.stu, %struct.stu* %45, i32 0, i32 3
  store i32 %42, i32* %46, align 4
  br label %47

47:                                               ; preds = %18
  %48 = load i32, i32* %10, align 4
  %49 = add nsw i32 %48, 1
  store i32 %49, i32* %10, align 4
  br label %13

50:                                               ; preds = %13
  store i32 0, i32* %11, align 4
  br label %51

51:                                               ; preds = %120, %50
  %52 = load i32, i32* %11, align 4
  %53 = sext i32 %52 to i64
  %54 = load i64, i64* %2, align 8
  %55 = icmp slt i64 %53, %54
  br i1 %55, label %56, label %123

56:                                               ; preds = %51
  %57 = load i32, i32* %11, align 4
  %58 = sext i32 %57 to i64
  %59 = getelementptr inbounds [65535 x %struct.stu], [65535 x %struct.stu]* %9, i64 0, i64 %58
  %60 = getelementptr inbounds %struct.stu, %struct.stu* %59, i32 0, i32 3
  %61 = load i32, i32* %60, align 4
  %62 = load i32, i32* %3, align 4
  %63 = icmp sgt i32 %61, %62
  br i1 %63, label %64, label %79

64:                                               ; preds = %56
  %65 = load i32, i32* %4, align 4
  store i32 %65, i32* %5, align 4
  %66 = load i32, i32* %7, align 4
  store i32 %66, i32* %8, align 4
  %67 = load i32, i32* %3, align 4
  store i32 %67, i32* %4, align 4
  %68 = load i32, i32* %6, align 4
  store i32 %68, i32* %7, align 4
  %69 = load i32, i32* %11, align 4
  %70 = sext i32 %69 to i64
  %71 = getelementptr inbounds [65535 x %struct.stu], [65535 x %struct.stu]* %9, i64 0, i64 %70
  %72 = getelementptr inbounds %struct.stu, %struct.stu* %71, i32 0, i32 3
  %73 = load i32, i32* %72, align 4
  store i32 %73, i32* %3, align 4
  %74 = load i32, i32* %11, align 4
  %75 = sext i32 %74 to i64
  %76 = getelementptr inbounds [65535 x %struct.stu], [65535 x %struct.stu]* %9, i64 0, i64 %75
  %77 = getelementptr inbounds %struct.stu, %struct.stu* %76, i32 0, i32 0
  %78 = load i32, i32* %77, align 16
  store i32 %78, i32* %6, align 4
  br label %120

79:                                               ; preds = %56
  %80 = load i32, i32* %11, align 4
  %81 = sext i32 %80 to i64
  %82 = getelementptr inbounds [65535 x %struct.stu], [65535 x %struct.stu]* %9, i64 0, i64 %81
  %83 = getelementptr inbounds %struct.stu, %struct.stu* %82, i32 0, i32 3
  %84 = load i32, i32* %83, align 4
  %85 = load i32, i32* %4, align 4
  %86 = icmp sgt i32 %84, %85
  br i1 %86, label %87, label %100

87:                                               ; preds = %79
  %88 = load i32, i32* %4, align 4
  store i32 %88, i32* %5, align 4
  %89 = load i32, i32* %7, align 4
  store i32 %89, i32* %8, align 4
  %90 = load i32, i32* %11, align 4
  %91 = sext i32 %90 to i64
  %92 = getelementptr inbounds [65535 x %struct.stu], [65535 x %struct.stu]* %9, i64 0, i64 %91
  %93 = getelementptr inbounds %struct.stu, %struct.stu* %92, i32 0, i32 3
  %94 = load i32, i32* %93, align 4
  store i32 %94, i32* %4, align 4
  %95 = load i32, i32* %11, align 4
  %96 = sext i32 %95 to i64
  %97 = getelementptr inbounds [65535 x %struct.stu], [65535 x %struct.stu]* %9, i64 0, i64 %96
  %98 = getelementptr inbounds %struct.stu, %struct.stu* %97, i32 0, i32 0
  %99 = load i32, i32* %98, align 16
  store i32 %99, i32* %7, align 4
  br label %120

100:                                              ; preds = %79
  %101 = load i32, i32* %11, align 4
  %102 = sext i32 %101 to i64
  %103 = getelementptr inbounds [65535 x %struct.stu], [65535 x %struct.stu]* %9, i64 0, i64 %102
  %104 = getelementptr inbounds %struct.stu, %struct.stu* %103, i32 0, i32 3
  %105 = load i32, i32* %104, align 4
  %106 = load i32, i32* %5, align 4
  %107 = icmp sgt i32 %105, %106
  br i1 %107, label %108, label %119

108:                                              ; preds = %100
  %109 = load i32, i32* %11, align 4
  %110 = sext i32 %109 to i64
  %111 = getelementptr inbounds [65535 x %struct.stu], [65535 x %struct.stu]* %9, i64 0, i64 %110
  %112 = getelementptr inbounds %struct.stu, %struct.stu* %111, i32 0, i32 3
  %113 = load i32, i32* %112, align 4
  store i32 %113, i32* %5, align 4
  %114 = load i32, i32* %11, align 4
  %115 = sext i32 %114 to i64
  %116 = getelementptr inbounds [65535 x %struct.stu], [65535 x %struct.stu]* %9, i64 0, i64 %115
  %117 = getelementptr inbounds %struct.stu, %struct.stu* %116, i32 0, i32 0
  %118 = load i32, i32* %117, align 16
  store i32 %118, i32* %8, align 4
  br label %119

119:                                              ; preds = %108, %100
  br label %120

120:                                              ; preds = %119, %87, %64
  %121 = load i32, i32* %11, align 4
  %122 = add nsw i32 %121, 1
  store i32 %122, i32* %11, align 4
  br label %51

123:                                              ; preds = %51
  %124 = load i32, i32* %6, align 4
  %125 = load i32, i32* %3, align 4
  %126 = load i32, i32* %7, align 4
  %127 = load i32, i32* %4, align 4
  %128 = load i32, i32* %8, align 4
  %129 = load i32, i32* %5, align 4
  %130 = call i32 (i8*, ...) @printf(i8* getelementptr inbounds ([19 x i8], [19 x i8]* @.str.2, i64 0, i64 0), i32 %124, i32 %125, i32 %126, i32 %127, i32 %128, i32 %129)
  %131 = call i32 @getchar()
  %132 = call i32 @getchar()
  ret i32 0
}

declare dso_local i32 @__isoc99_scanf(i8*, ...) #1

declare dso_local i32 @printf(i8*, ...) #1

declare dso_local i32 @getchar() #1


!llvm.module.flags = !{!0}
!llvm.ident = !{!1}

!0 = !{i32 1, !"wchar_size", i32 4}
!1 = !{!"clang version 10.0.0-4ubuntu1 "}
